(ipersistenciaPersona
Persona
p0
(dp1
S'edad'
p2
I29
sS'nombre'
p3
S'Emiliano'
p4
sS'altura'
p5
F1.75
sS'sexo'
p6
S'Masculino'
p7
sb.(ipersistenciaPersona
Persona
p0
(dp1
S'edad'
p2
I25
sS'nombre'
p3
S'Lucia'
p4
sS'altura'
p5
F1.65
sS'sexo'
p6
S'Femenino'
p7
sb.